target datalayout = "e-m:e-p270:32:32-p271:32:32-p272:64:64-i64:64-i128:128-f80:128-n8:16:32:64-S128"
target triple = "x86_64-pc-linux-gnu"

; Function Attrs: mustprogress nounwind uwtable
define internal noundef zeroext i8 @_ZN2cvL13saturate_castIhEET_i(i32 noundef %0) #5 {
  %2 = alloca i32, align 4
  store i32 %0, ptr %2, align 4
  %3 = load i32, ptr %2, align 4
  %4 = icmp ule i32 %3, 255
  br i1 %4, label %5, label %7

5:                                                ; preds = %1
  %6 = load i32, ptr %2, align 4
  br label %11

7:                                                ; preds = %1
  %8 = load i32, ptr %2, align 4
  %9 = icmp sgt i32 %8, 0
  %10 = select i1 %9, i32 255, i32 0
  br label %11

11:                                               ; preds = %7, %5
  %12 = phi i32 [ %6, %5 ], [ %10, %7 ]
  %13 = trunc i32 %12 to i8
  ret i8 %13
}

; Function Attrs: mustprogress uwtable
define hidden void @_ZN2cv4gapi5fluid12cpu_baseline19run_rgb2yuv422_implEPhPKhi(ptr noundef %0, ptr noundef %1, i32 noundef %2) #0 {
  %4 = alloca ptr, align 8
  %5 = alloca ptr, align 8
  %6 = alloca i32, align 4
  %7 = alloca i32, align 4
  %8 = alloca i32, align 4
  %9 = alloca i16, align 2
  %10 = alloca i16, align 2
  %11 = alloca i16, align 2
  %12 = alloca i16, align 2
  %13 = alloca i16, align 2
  %14 = alloca i16, align 2
  %15 = alloca i16, align 2
  store ptr %0, ptr %4, align 8
  store ptr %1, ptr %5, align 8
  store i32 %2, ptr %6, align 4
  store i32 0, ptr %7, align 4
  store i32 0, ptr %8, align 4
  br label %16

16:                                               ; preds = %160, %3
  %17 = load i32, ptr %7, align 4
  %18 = load i32, ptr %6, align 4
  %19 = mul nsw i32 %18, 3
  %20 = icmp slt i32 %17, %19
  br i1 %20, label %21, label %163

21:                                               ; preds = %16
  %22 = load ptr, ptr %5, align 8
  %23 = load i32, ptr %7, align 4
  %24 = sext i32 %23 to i64
  %25 = getelementptr inbounds i8, ptr %22, i64 %24
  %26 = load i8, ptr %25, align 1
  %27 = zext i8 %26 to i32
  %28 = shl i32 %27, 7
  %29 = trunc i32 %28 to i16
  store i16 %29, ptr %9, align 2
  %30 = load ptr, ptr %5, align 8
  %31 = load i32, ptr %7, align 4
  %32 = add nsw i32 %31, 1
  %33 = sext i32 %32 to i64
  %34 = getelementptr inbounds i8, ptr %30, i64 %33
  %35 = load i8, ptr %34, align 1
  %36 = zext i8 %35 to i32
  %37 = shl i32 %36, 7
  %38 = trunc i32 %37 to i16
  store i16 %38, ptr %10, align 2
  %39 = load ptr, ptr %5, align 8
  %40 = load i32, ptr %7, align 4
  %41 = add nsw i32 %40, 2
  %42 = sext i32 %41 to i64
  %43 = getelementptr inbounds i8, ptr %39, i64 %42
  %44 = load i8, ptr %43, align 1
  %45 = zext i8 %44 to i32
  %46 = shl i32 %45, 7
  %47 = trunc i32 %46 to i16
  store i16 %47, ptr %11, align 2
  %48 = load i16, ptr %9, align 2
  %49 = sext i16 %48 to i32
  %50 = mul nsw i32 19595, %49
  %51 = load i16, ptr %10, align 2
  %52 = sext i16 %51 to i32
  %53 = mul nsw i32 38470, %52
  %54 = add nsw i32 %50, %53
  %55 = load i16, ptr %11, align 2
  %56 = sext i16 %55 to i32
  %57 = mul nsw i32 7471, %56
  %58 = add nsw i32 %54, %57
  %59 = ashr i32 %58, 16
  %60 = trunc i32 %59 to i16
  store i16 %60, ptr %12, align 2
  %61 = load i16, ptr %11, align 2
  %62 = sext i16 %61 to i32
  %63 = load i16, ptr %12, align 2
  %64 = sext i16 %63 to i32
  %65 = sub nsw i32 %62, %64
  %66 = mul nsw i32 2015, %65
  %67 = ashr i32 %66, 16
  %68 = trunc i32 %67 to i16
  store i16 %68, ptr %13, align 2
  %69 = load i16, ptr %9, align 2
  %70 = sext i16 %69 to i32
  %71 = load i16, ptr %12, align 2
  %72 = sext i16 %71 to i32
  %73 = sub nsw i32 %70, %72
  %74 = mul nsw i32 3592, %73
  %75 = ashr i32 %74, 16
  %76 = trunc i32 %75 to i16
  store i16 %76, ptr %14, align 2
  %77 = load i16, ptr %13, align 2
  %78 = sext i16 %77 to i32
  %79 = add nsw i32 %78, 1024
  %80 = add nsw i32 %79, 4
  %81 = ashr i32 %80, 3
  %82 = call noundef zeroext i8 @_ZN2cvL13saturate_castIhEET_i(i32 noundef %81)
  %83 = load ptr, ptr %4, align 8
  %84 = load i32, ptr %8, align 4
  %85 = sext i32 %84 to i64
  %86 = getelementptr inbounds i8, ptr %83, i64 %85
  store i8 %82, ptr %86, align 1
  %87 = load i16, ptr %12, align 2
  %88 = sext i16 %87 to i32
  %89 = add nsw i32 %88, 64
  %90 = ashr i32 %89, 7
  %91 = call noundef zeroext i8 @_ZN2cvL13saturate_castIhEET_i(i32 noundef %90)
  %92 = load ptr, ptr %4, align 8
  %93 = load i32, ptr %8, align 4
  %94 = add nsw i32 %93, 1
  %95 = sext i32 %94 to i64
  %96 = getelementptr inbounds i8, ptr %92, i64 %95
  store i8 %91, ptr %96, align 1
  %97 = load i16, ptr %14, align 2
  %98 = sext i16 %97 to i32
  %99 = add nsw i32 %98, 1024
  %100 = add nsw i32 %99, 4
  %101 = ashr i32 %100, 3
  %102 = call noundef zeroext i8 @_ZN2cvL13saturate_castIhEET_i(i32 noundef %101)
  %103 = load ptr, ptr %4, align 8
  %104 = load i32, ptr %8, align 4
  %105 = add nsw i32 %104, 2
  %106 = sext i32 %105 to i64
  %107 = getelementptr inbounds i8, ptr %103, i64 %106
  store i8 %102, ptr %107, align 1
  %108 = load ptr, ptr %5, align 8
  %109 = load i32, ptr %7, align 4
  %110 = add nsw i32 %109, 3
  %111 = sext i32 %110 to i64
  %112 = getelementptr inbounds i8, ptr %108, i64 %111
  %113 = load i8, ptr %112, align 1
  %114 = zext i8 %113 to i32
  %115 = shl i32 %114, 7
  %116 = trunc i32 %115 to i16
  store i16 %116, ptr %9, align 2
  %117 = load ptr, ptr %5, align 8
  %118 = load i32, ptr %7, align 4
  %119 = add nsw i32 %118, 4
  %120 = sext i32 %119 to i64
  %121 = getelementptr inbounds i8, ptr %117, i64 %120
  %122 = load i8, ptr %121, align 1
  %123 = zext i8 %122 to i32
  %124 = shl i32 %123, 7
  %125 = trunc i32 %124 to i16
  store i16 %125, ptr %10, align 2
  %126 = load ptr, ptr %5, align 8
  %127 = load i32, ptr %7, align 4
  %128 = add nsw i32 %127, 5
  %129 = sext i32 %128 to i64
  %130 = getelementptr inbounds i8, ptr %126, i64 %129
  %131 = load i8, ptr %130, align 1
  %132 = zext i8 %131 to i32
  %133 = shl i32 %132, 7
  %134 = trunc i32 %133 to i16
  store i16 %134, ptr %11, align 2
  %135 = load i16, ptr %9, align 2
  %136 = sext i16 %135 to i32
  %137 = mul nsw i32 19595, %136
  %138 = load i16, ptr %10, align 2
  %139 = sext i16 %138 to i32
  %140 = mul nsw i32 38470, %139
  %141 = add nsw i32 %137, %140
  %142 = load i16, ptr %11, align 2
  %143 = sext i16 %142 to i32
  %144 = mul nsw i32 7471, %143
  %145 = add nsw i32 %141, %144
  %146 = ashr i32 %145, 16
  %147 = trunc i32 %146 to i16
  store i16 %147, ptr %15, align 2
  %148 = load i16, ptr %15, align 2
  %149 = sext i16 %148 to i32
  %150 = add nsw i32 %149, 64
  %151 = ashr i32 %150, 7
  %152 = call noundef zeroext i8 @_ZN2cvL13saturate_castIhEET_i(i32 noundef %151)
  %153 = load ptr, ptr %4, align 8
  %154 = load i32, ptr %8, align 4
  %155 = add nsw i32 %154, 3
  %156 = sext i32 %155 to i64
  %157 = getelementptr inbounds i8, ptr %153, i64 %156
  store i8 %152, ptr %157, align 1
  %158 = load i32, ptr %8, align 4
  %159 = add nsw i32 %158, 4
  store i32 %159, ptr %8, align 4
  br label %160

160:                                              ; preds = %21
  %161 = load i32, ptr %7, align 4
  %162 = add nsw i32 %161, 6
  store i32 %162, ptr %7, align 4
  br label %16, !llvm.loop !11

163:                                              ; preds = %16
  ret void
}

; Function Attrs: mustprogress uwtable
define hidden void @_ZN2cv4gapi5fluid19run_rgb2yuv422_implEPhPKhi(ptr noundef %0, ptr noundef %1, i32 noundef %2) #0 {
  %4 = alloca ptr, align 8
  %5 = alloca ptr, align 8
  %6 = alloca i32, align 4
  store ptr %0, ptr %4, align 8
  store ptr %1, ptr %5, align 8
  store i32 %2, ptr %6, align 4
  %7 = load ptr, ptr %4, align 8
  %8 = load ptr, ptr %5, align 8
  %9 = load i32, ptr %6, align 4
  call void @_ZN2cv4gapi5fluid12cpu_baseline19run_rgb2yuv422_implEPhPKhi(ptr noundef %7, ptr noundef %8, i32 noundef %9)
  ret void
}