; Function Attrs: mustprogress nofree norecurse nosync nounwind memory(argmem: readwrite) uwtable
define hidden void @_ZN2cv4gapi5fluid19run_rgb2yuv422_implEPhPKhi(ptr nocapture noundef writeonly %0, ptr nocapture noundef readonly %1, i32 noundef %2) local_unnamed_addr #5 {
  %4 = icmp sgt i32 %2, 0
  br i1 %4, label %.lr.ph.preheader.i, label %_ZN2cv4gapi5fluid12cpu_baseline19run_rgb2yuv422_implEPhPKhi.exit

.lr.ph.preheader.i:                               ; preds = %3
  %5 = mul nuw nsw i32 %2, 3
  %6 = zext nneg i32 %5 to i64
  br label %.lr.ph.i

.lr.ph.i:                                         ; preds = %.lr.ph.i, %.lr.ph.preheader.i
  %indvars.iv40.i = phi i64 [ 0, %.lr.ph.preheader.i ], [ %indvars.iv.next41.i, %.lr.ph.i ]
  %indvars.iv.i = phi i64 [ 0, %.lr.ph.preheader.i ], [ %indvars.iv.next.i, %.lr.ph.i ]
  %7 = getelementptr inbounds i8, ptr %1, i64 %indvars.iv.i
  %8 = load i8, ptr %7, align 1
  %9 = zext i8 %8 to i32
  %10 = shl nuw nsw i32 %9, 7
  %11 = or disjoint i64 %indvars.iv.i, 1
  %12 = getelementptr inbounds i8, ptr %1, i64 %11
  %13 = load i8, ptr %12, align 1
  %14 = zext i8 %13 to i32
  %15 = getelementptr inbounds i8, ptr %7, i64 2
  %16 = load i8, ptr %15, align 1
  %17 = zext i8 %16 to i32
  %18 = shl nuw nsw i32 %17, 7
  %19 = mul nuw nsw i32 %9, 2508160
  %20 = mul nuw nsw i32 %14, 4924160
  %21 = add nuw nsw i32 %20, %19
  %22 = mul nuw nsw i32 %17, 956288
  %23 = add nuw nsw i32 %21, %22
  %24 = lshr i32 %23, 16
  %25 = sub nsw i32 %18, %24
  %26 = mul nsw i32 %25, 2015
  %27 = lshr i32 %26, 16
  %28 = sub nsw i32 %10, %24
  %29 = mul nsw i32 %28, 3592
  %30 = ashr i32 %29, 16
  %31 = add nuw nsw i32 %27, 1028
  %32 = lshr i32 %31, 3
  %33 = trunc i32 %32 to i8
  %34 = getelementptr inbounds i8, ptr %0, i64 %indvars.iv40.i
  store i8 %33, ptr %34, align 1
  %35 = add nuw nsw i32 %24, 64
  %36 = lshr i32 %35, 7
  %37 = trunc nuw i32 %36 to i8
  %38 = or disjoint i64 %indvars.iv40.i, 1
  %39 = getelementptr inbounds i8, ptr %0, i64 %38
  store i8 %37, ptr %39, align 1
  %40 = add nsw i32 %30, 1028
  %41 = ashr i32 %40, 3
  %42 = tail call i32 @llvm.smax.i32(i32 %41, i32 0)
  %43 = tail call i32 @llvm.umin.i32(i32 %42, i32 255)
  %44 = trunc nuw i32 %43 to i8
  %45 = or disjoint i64 %indvars.iv40.i, 2
  %46 = getelementptr inbounds i8, ptr %0, i64 %45
  store i8 %44, ptr %46, align 1
  %47 = getelementptr inbounds i8, ptr %7, i64 3
  %48 = load i8, ptr %47, align 1
  %49 = zext i8 %48 to i32
  %50 = getelementptr inbounds i8, ptr %7, i64 4
  %51 = load i8, ptr %50, align 1
  %52 = zext i8 %51 to i32
  %53 = getelementptr inbounds i8, ptr %7, i64 5
  %54 = load i8, ptr %53, align 1
  %55 = zext i8 %54 to i32
  %56 = mul nuw nsw i32 %49, 2508160
  %57 = mul nuw nsw i32 %52, 4924160
  %58 = add nuw nsw i32 %57, %56
  %59 = mul nuw nsw i32 %55, 956288
  %60 = add nuw nsw i32 %58, %59
  %61 = lshr i32 %60, 16
  %62 = add nuw nsw i32 %61, 64
  %63 = lshr i32 %62, 7
  %64 = trunc nuw i32 %63 to i8
  %65 = or disjoint i64 %indvars.iv40.i, 3
  %66 = getelementptr inbounds i8, ptr %0, i64 %65
  store i8 %64, ptr %66, align 1
  %indvars.iv.next41.i = add nuw nsw i64 %indvars.iv40.i, 4
  %indvars.iv.next.i = add nuw nsw i64 %indvars.iv.i, 6
  %67 = icmp ult i64 %indvars.iv.next.i, %6
  br i1 %67, label %.lr.ph.i, label %_ZN2cv4gapi5fluid12cpu_baseline19run_rgb2yuv422_implEPhPKhi.exit, !llvm.loop !13

_ZN2cv4gapi5fluid12cpu_baseline19run_rgb2yuv422_implEPhPKhi.exit: ; preds = %.lr.ph.i, %3
  ret void
}